; Function Attrs: mustprogress nounwind uwtable
define hidden void @_ZNK10MethodData14print_value_onEP12outputStream(ptr nocapture noundef nonnull readonly align 8 dereferenceable(312) %0, ptr noundef nonnull %1) unnamed_addr #2 align 2 {
  tail call void (ptr, ptr, ...) @_ZN12outputStream5printEPKcz(ptr noundef nonnull align 8 dereferenceable(56) %1, ptr noundef nonnull @.str.43) #20
  %3 = getelementptr inbounds i8, ptr %0, i64 8
  %4 = load ptr, ptr %3, align 8
  %5 = load ptr, ptr %4, align 8
  %6 = getelementptr inbounds i8, ptr %5, i64 88
  %7 = load ptr, ptr %6, align 8
  tail call void %7(ptr noundef nonnull align 8 dereferenceable(88) %4, ptr noundef nonnull %1) #20
  ret void
}